; Function Attrs: mustprogress nofree norecurse nosync nounwind willreturn memory(argmem: write) uwtable
define hidden void @_ZN6Assimp4Ogre4MeshC2Ev(ptr noundef nonnull align 8 dereferenceable(128) initializes((0, 1)) %0) unnamed_addr #0 align 2 personality ptr @__gxx_personality_v0 {
  store i8 0, ptr %0, align 8
  %2 = getelementptr inbounds nuw i8, ptr %0, i64 8
  %3 = getelementptr inbounds nuw i8, ptr %0, i64 24
  store ptr %3, ptr %2, align 8
  %4 = getelementptr inbounds nuw i8, ptr %0, i64 16
  store i64 0, ptr %4, align 8
  store i8 0, ptr %3, align 8
  %5 = getelementptr inbounds nuw i8, ptr %0, i64 40
  tail call void @llvm.memset.p0.i64(ptr noundef nonnull align 8 dereferenceable(88) %5, i8 0, i64 88, i1 false)
  ret void
}